(dp1
S'idx2item'
p2
(dp3
I0
S'<pad>'
p4
sI1
S'<go>'
p5
sI2
S'<unk>'
p6
sI3
S'EOS_U'
p7
sI4
S'EOS_A'
p8
sI5
S'EOS'
p9
sI6
S'EOS_C'
p10
sI7
S','
sI8
S'='
sI9
S')'
sI10
S'('
sI11
S':'
sI12
S'}'
sI13
S'{'
sI14
S';'
sI15
S'starttime'
p11
sI16
S'moviename'
p12
sI17
S'date'
p13
sI18
S'inform'
p14
sI19
S'theater'
p15
sI20
S'city'
p16
sI21
S'numberofpeople'
p17
sI22
S'request'
p18
sI23
S'request_slots'
p19
sI24
S'inform_slots'
p20
sI25
S'agent_request_slots'
p21
sI26
S'proposed_slots'
p22
sI27
S'ticket'
p23
sI28
S'closing'
p24
sI29
S'state'
p25
sI30
S''
sI31
S'other'
p26
sI32
S'taskcomplete'
p27
sI33
S'genre'
p28
sI34
S'greeting'
p29
sI35
S'video_format'
p30
sI36
S'thanks'
p31
sI37
S'zip'
p32
sI38
S'confirm_question'
p33
sI39
S'multiple_choice'
p34
sI40
S'result'
p35
sI41
S'description'
p36
sI42
S'confirm_answer'
p37
sI43
S'distanceconstraints'
p38
sI44
S'mc_list'
p39
sI45
S'price'
p40
sI46
S'mpaa_rating'
p41
sI47
S'critic_rating'
p42
sI48
S'actor'
p43
sI49
S'actress'
p44
sI50
S'numberofkids'
p45
sI51
S'welcome'
p46
sI52
S'deny'
p47
sI53
S'movie_series'
p48
sI54
S'movie'
p49
sI55
S'seating'
p50
sI56
S'theater_chain'
p51
sI57
S'Not_Sure'
p52
sI58
S'name'
p53
sI59
S'thank you and enjoy the show.'
p54
sI60
S'pickup_time'
p55
sI61
S'dropoff_location'
p56
sI62
S'pickup_location'
p57
sI63
S'food'
p58
sI64
S'cuisine'
p59
sI65
S'price$21.80'
p60
sI66
S'location'
p61
sI67
S'tascomplete'
p62
sI68
S'taskcomplte'
p63
sI69
S'starttime{5:10#7:40}'
p64
sI70
S'starttim{5pm#7:40pm}'
p65
sI71
S'restaurantname'
p66
sI72
S'starttime2pm'
p67
sI73
S'address'
p68
sI74
S'edwards fresno stadium 22 & imax'
p69
sI75
S'starttime7:10'
p70
sI76
S'prie'
p71
sI77
S'taxi'
p72
sI78
S'startrtime'
p73
ssS'item2idx'
p74
(dp75
S''
I30
sg39
I44
sg35
I40
sg60
I65
sg61
I66
sg55
I60
sg37
I42
sg71
I76
sg50
I55
sg44
I49
sg33
I38
sg9
I5
sg28
I33
sg4
I0
sg62
I67
sg31
I36
sg57
I62
sg27
I32
sg63
I68
sg72
I77
sg19
I23
sg16
I20
sg7
I3
sg32
I37
sg48
I53
sS')'
I9
sS'('
I10
sS','
I7
sg43
I48
sg64
I69
sg25
I29
sg26
I31
sg10
I6
sg20
I24
sg8
I4
sg5
I1
sS';'
I14
sS':'
I11
sS'='
I8
sg52
I57
sg66
I71
sg17
I21
sg36
I41
sg45
I50
sg58
I63
sg42
I47
sg40
I45
sg46
I51
sg67
I72
sg30
I35
sg68
I73
sg13
I17
sg21
I25
sg23
I27
sg59
I64
sg65
I70
sg24
I28
sg69
I74
sg56
I61
sg47
I52
sg15
I19
sg53
I58
sg38
I43
sS'}'
I12
sg70
I75
sg18
I22
sg29
I34
sg22
I26
sg54
I59
sg14
I18
sg73
I78
sg41
I46
sg11
I15
sg34
I39
sg51
I56
sg49
I54
sS'{'
I13
sg12
I16
sg6
I2
ssS'freq_dict'
p76
(dp77
S''
I7567
sg39
I1452
sg50
I29
sg60
I2
sg61
I2
sg55
I5
sg71
I1
sg44
I370
sg33
I2975
sg56
I5
sg28
I5766
sg62
I2
sg35
I2471
sg57
I5
sg27
I5930
sg63
I2
sg19
I10524
sg16
I15736
sg32
I3070
sg64
I2
sS')'
I45004
sS'('
I45004
sS','
I71485
sg43
I518
sg65
I2
sg25
I8357
sg37
I1880
sg72
I1
sg20
I10524
sg48
I64
sS';'
I36116
sS':'
I42096
sS'='
I53520
sg52
I10
sg66
I2
sg17
I15087
sg36
I2181
sg45
I353
sg58
I4
sg42
I777
sg40
I1072
sg46
I278
sg67
I2
sg30
I3762
sg68
I2
sg13
I18860
sg21
I10524
sg23
I9545
sg59
I4
sg24
I8711
sg69
I2
sg47
I67
sg15
I16986
sg53
I10
sg38
I1491
sS'}'
I42096
sg70
I2
sg18
I10989
sg29
I3779
sg22
I10524
sg54
I8
sg14
I18463
sg73
I1
sg41
I973
sg11
I24392
sg34
I2916
sg51
I16
sg49
I50
sS'{'
I42096
sg12
I21409
sg26
I6165
sg31
I3126
ss.