(dp1
S'idx2item'
p2
(dp3
I0
S'<pad>'
p4
sI1
S'<go>'
p5
sI2
S'<unk>'
p6
sI3
S'EOS_U'
p7
sI4
S'EOS_A'
p8
sI5
S'EOS'
p9
sI6
S'EOS_C'
p10
sI7
S','
sI8
S':'
sI9
S'{'
sI10
S'}'
sI11
S'='
sI12
S')'
sI13
S'('
sI14
S';'
sI15
S'restaurantname'
p11
sI16
S'starttime'
p12
sI17
S'date'
p13
sI18
S'inform'
p14
sI19
S'numberofpeople'
p15
sI20
S'city'
p16
sI21
S'request'
p17
sI22
S'request_slots'
p18
sI23
S'inform_slots'
p19
sI24
S'agent_request_slots'
p20
sI25
S'proposed_slots'
p21
sI26
S'cuisine'
p22
sI27
S'taskcomplete'
p23
sI28
S'state'
p24
sI29
S'closing'
p25
sI30
S'personfullname'
p26
sI31
S''
sI32
S'rating'
p27
sI33
S'result'
p28
sI34
S'greeting'
p29
sI35
S'multiple_choice'
p30
sI36
S'restauranttype'
p31
sI37
S'other'
p32
sI38
S'reservation'
p33
sI39
S'food'
p34
sI40
S'thanks'
p35
sI41
S'atmosphere'
p36
sI42
S'pricing'
p37
sI43
S'mealtype'
p38
sI44
S'confirm_question'
p39
sI45
S'address'
p40
sI46
S'occasion'
p41
sI47
S'confirm_answer'
p42
sI48
S'distanceconstraints'
p43
sI49
S'mc_list'
p44
sI50
S'seating'
p45
sI51
S'dress_code'
p46
sI52
S'zip'
p47
sI53
S'choice'
p48
sI54
S'numberofkids'
p49
sI55
S'welcome'
p50
sI56
S'deny'
p51
sI57
S'Not_Sure'
p52
sI58
S'phonenumber'
p53
sI59
S'result{}'
p54
sI60
S'implicit_value'
p55
sI61
S'ticket'
p56
sI62
S'datelstarttime'
p57
sI63
S'date#starttime'
p58
sI64
S"restaurantname{fleming's steakhouse#peterson's#ocean prime}"
p59
sI65
S'closingenjoy your meal'
p60
sI66
S'zip code'
p61
sI67
S'numberofpeople5'
p62
sI68
S'cuisiue'
p63
sI69
S'taskocmplete'
p64
sI70
S'45pm'
p65
sI71
S"restaurantname{east- blockade runner beach resort#genki sushi#angelo's pizzeria}"
p66
sI72
S'numberofpeoplez'
p67
sI73
S'cuising'
p68
sI74
S'would you like to make a restaurant reservation?'
p69
sI75
S'restaurantname{metropolitan grill#local 360#skycity}'
p70
sI76
S'theater'
p71
sI77
S'mealtype-lunch'
p72
sI78
S'date-tomorrow'
p73
ssS'item2idx'
p74
(dp75
S''
I31
sg27
I32
sg36
I41
sg57
I62
sg58
I63
sg59
I64
sg60
I65
sg42
I47
sg45
I50
sg39
I44
sg9
I5
sg4
I0
sg53
I58
sg28
I33
sg23
I27
sg31
I36
sg62
I67
sg44
I49
sg63
I68
sg18
I22
sg16
I20
sg7
I3
sg26
I30
sg47
I52
sg71
I76
sS')'
I12
sS'('
I13
sg64
I69
sg49
I54
sg35
I40
sS','
I7
sg37
I42
sg65
I70
sg24
I28
sg32
I37
sg10
I6
sg19
I23
sg8
I4
sg5
I1
sg38
I43
sS';'
I14
sS':'
I8
sS'='
I11
sg52
I57
sg11
I15
sg15
I19
sg55
I60
sg22
I26
sg34
I39
sg50
I55
sg48
I53
sg67
I72
sg68
I73
sg40
I45
sg13
I17
sg33
I38
sg56
I61
sg66
I71
sg25
I29
sg69
I74
sg46
I51
sg72
I77
sg51
I56
sg20
I24
sg43
I48
sg73
I78
sg17
I21
sg29
I34
sg21
I25
sg70
I75
sg14
I18
sg54
I59
sg12
I16
sg30
I35
sg41
I46
sS'{'
I9
sS'}'
I10
sg61
I66
sg6
I2
ssS'freq_dict'
p76
(dp77
S''
I5590
sg27
I5356
sg36
I2318
sg57
I2
sg58
I2
sg59
I2
sg60
I2
sg42
I1124
sg45
I780
sg39
I1416
sg22
I10254
sg61
I2
sg41
I1149
sg53
I10
sg37
I1793
sg23
I7437
sg31
I4079
sg62
I2
sg44
I839
sg63
I2
sg18
I14504
sg16
I21099
sg26
I5729
sg47
I366
sg71
I1
sS')'
I54579
sS'('
I54579
sg64
I2
sg35
I2886
sS','
I81848
sg65
I2
sg24
I6685
sg32
I3435
sg19
I14504
sg38
I1783
sS';'
I39500
sS':'
I58016
sS'='
I57198
sg52
I13
sg11
I32970
sg15
I21770
sg55
I4
sg49
I115
sg34
I2914
sg50
I56
sg66
I2
sg67
I2
sg68
I2
sg40
I1221
sg13
I26117
sg33
I2930
sg56
I3
sg48
I307
sg25
I6505
sg69
I2
sg72
I1
sg51
I34
sg20
I14504
sg43
I1082
sg73
I1
sg17
I18409
sg29
I4674
sg21
I14504
sg70
I2
sg14
I23707
sg54
I8
sg12
I28168
sg30
I4423
sg46
I487
sS'{'
I58016
sS'}'
I58016
sg28
I4729
ss.