(dp1
S'idx2item'
p2
(dp3
I0
S'<pad>'
p4
sI1
S'<go>'
p5
sI2
S'<unk>'
p6
sI3
S'EOS_U'
p7
sI4
S'EOS_A'
p8
sI5
S'EOS'
p9
sI6
S'EOS_C'
p10
sI7
S','
sI8
S':'
sI9
S'{'
sI10
S'}'
sI11
S'='
sI12
S')'
sI13
S'('
sI14
S';'
sI15
S'pickup_location'
p11
sI16
S'inform'
p12
sI17
S'pickup_time'
p13
sI18
S'dropoff_location'
p14
sI19
S'numberofpeople'
p15
sI20
S'date'
p16
sI21
S'car_type'
p17
sI22
S'request'
p18
sI23
S'request_slots'
p19
sI24
S'inform_slots'
p20
sI25
S'agent_request_slots'
p21
sI26
S'proposed_slots'
p22
sI27
S'greeting'
p23
sI28
S'pickup_location_city'
p24
sI29
S'closing'
p25
sI30
S'state'
p26
sI31
S'taskcomplete'
p27
sI32
S'other'
p28
sI33
S'mc_list'
p29
sI34
S''
sI35
S'taxi'
p30
sI36
S'cost'
p31
sI37
S'multiple_choice'
p32
sI38
S'dropoff_location_city'
p33
sI39
S'confirm_question'
p34
sI40
S'thanks'
p35
sI41
S'name'
p36
sI42
S'confirm_answer'
p37
sI43
S'result'
p38
sI44
S'distanceconstraints'
p39
sI45
S'city'
p40
sI46
S'welcome'
p41
sI47
S'welcom'
p42
sI48
S'zip'
p43
sI49
S'pickup_tine'
p44
sI50
S'car_type{xl#suv}'
p45
sI51
S'taskconplete'
p46
sI52
S'deny'
p47
ssS'item2idx'
p48
(dp49
g29
I33
sS''
I34
sg38
I43
sg37
I42
sg41
I46
sg34
I39
sg14
I18
sg4
I0
sg31
I36
sg35
I40
sg11
I15
sg27
I31
sg19
I23
sg40
I45
sg7
I3
sg42
I47
sg9
I5
sS')'
I12
sS'('
I13
sg24
I28
sS','
I7
sg26
I30
sg28
I32
sg10
I6
sg20
I24
sg8
I4
sg5
I1
sS';'
I14
sS':'
I8
sS'='
I11
sg15
I19
sg13
I17
sg33
I38
sg16
I20
sg25
I29
sg44
I49
sg17
I21
sg47
I52
sg21
I25
sg36
I41
sg39
I44
sg45
I50
sg18
I22
sg23
I27
sg22
I26
sg12
I16
sg30
I35
sg32
I37
sS'{'
I9
sg46
I51
sS'}'
I10
sg43
I48
sg6
I2
ssS'freq_dict'
p50
(dp51
g30
I4495
sS''
I5078
sg41
I100
sg34
I2238
sg14
I17089
sg31
I4339
sg35
I1679
sg11
I18604
sg27
I6184
sg29
I5634
sg19
I11364
sg40
I116
sg42
I4
sg43
I3
sS')'
I42428
sS'('
I42428
sg24
I8889
sS','
I70412
sg26
I6508
sg37
I1047
sg20
I11364
sS';'
I30592
sS':'
I45456
sS'='
I44301
sg15
I16789
sg13
I17685
sg33
I3481
sg16
I16335
sg25
I6767
sg44
I2
sg17
I13256
sg47
I1
sg21
I11364
sg36
I1213
sg39
I214
sg45
I2
sg18
I13194
sg23
I9210
sg22
I11364
sg12
I17816
sg32
I3612
sS'{'
I45456
sg46
I2
sS'}'
I45456
sg28
I5790
sg38
I808
ss.